; Function Attrs: nounwind uwtable
define zeroext range(i8 0, 2) i8 @l_Lean_Compiler_LCNF_mkDeclExt___lambda__4(ptr noundef %0, ptr noundef readonly captures(none) %1) local_unnamed_addr #1 {
  %3 = getelementptr inbounds nuw i8, ptr %1, i64 8
  %4 = load ptr, ptr %3, align 8, !tbaa !9
  %5 = tail call i64 @l_Lean_Name_hash___override(ptr noundef %4) #6
  %6 = tail call zeroext i8 @l_Lean_PersistentHashMap_containsAux___at_Lean_Compiler_LCNF_mkDeclExt___spec__6(ptr noundef %0, i64 noundef %5, ptr noundef %4)
  %7 = icmp eq i8 %6, 0
  %. = zext i1 %7 to i8
  ret i8 %.
}